target datalayout = "e-m:e-p270:32:32-p271:32:32-p272:64:64-i64:64-i128:128-f80:128-n8:16:32:64-S128"
target triple = "x86_64-pc-linux-gnu"

%struct.SDL_HIDAPI_Device = type { ptr, ptr, ptr, ptr, i16, i16, i16, ptr, %struct.SDL_GUID, i32, i32, i32, i32, i16, i16, i8, i32, i32, i32, ptr, ptr, ptr, ptr, %struct.SDL_AtomicInt, i32, ptr, i8, i8, i8, ptr, i32, ptr, ptr }
%struct.SDL_GUID = type { [16 x i8] }
%struct.SDL_AtomicInt = type { i32 }
%struct.SDL_DriverPS5_Context = type { ptr, ptr, i8, i8, i8, i8, i8, i8, i8, i8, i32, i8, i8, i8, i8, i8, i8, i8, [6 x %struct.IMUCalibrationData], i16, i64, i32, i8, i8, i8, i8, i8, i8, i8, i32, i64, i32, %union.anon }
%struct.IMUCalibrationData = type { i16, float }
%union.anon = type { [64 x i8] }

@.str.8 = private unnamed_addr constant [5 x i8] c"auto\00", align 1

; Function Attrs: nounwind uwtable
define internal void @SDL_PS5EnhancedReportsChanged(ptr noundef %0, ptr noundef %1, ptr noundef %2, ptr noundef %3) #0 {
  %5 = alloca ptr, align 8
  %6 = alloca ptr, align 8
  %7 = alloca ptr, align 8
  %8 = alloca ptr, align 8
  %9 = alloca ptr, align 8
  store ptr %0, ptr %5, align 8
  store ptr %1, ptr %6, align 8
  store ptr %2, ptr %7, align 8
  store ptr %3, ptr %8, align 8
  call void @llvm.lifetime.start.p0(i64 8, ptr %9) #6
  %10 = load ptr, ptr %5, align 8
  store ptr %10, ptr %9, align 8
  %11 = load ptr, ptr %9, align 8
  %12 = getelementptr inbounds nuw %struct.SDL_DriverPS5_Context, ptr %11, i32 0, i32 0
  %13 = load ptr, ptr %12, align 8
  %14 = getelementptr inbounds nuw %struct.SDL_HIDAPI_Device, ptr %13, i32 0, i32 15
  %15 = load i8, ptr %14, align 4, !range !5, !noundef !6
  %16 = trunc i8 %15 to i1
  br i1 %16, label %17, label %35

17:                                               ; preds = %4
  %18 = load ptr, ptr %8, align 8
  %19 = icmp ne ptr %18, null
  br i1 %19, label %20, label %26

20:                                               ; preds = %17
  %21 = load ptr, ptr %8, align 8
  %22 = call i32 @SDL_strcasecmp_REAL(ptr noundef %21, ptr noundef @.str.8)
  %23 = icmp eq i32 %22, 0
  br i1 %23, label %24, label %26

24:                                               ; preds = %20
  %25 = load ptr, ptr %9, align 8
  call void @HIDAPI_DriverPS5_SetEnhancedReportHint(ptr noundef %25, i32 noundef 2)
  br label %34

26:                                               ; preds = %20, %17
  %27 = load ptr, ptr %8, align 8
  %28 = call zeroext i1 @SDL_GetStringBoolean(ptr noundef %27, i1 noundef zeroext true)
  br i1 %28, label %29, label %31

29:                                               ; preds = %26
  %30 = load ptr, ptr %9, align 8
  call void @HIDAPI_DriverPS5_SetEnhancedReportHint(ptr noundef %30, i32 noundef 1)
  br label %33

31:                                               ; preds = %26
  %32 = load ptr, ptr %9, align 8
  call void @HIDAPI_DriverPS5_SetEnhancedReportHint(ptr noundef %32, i32 noundef 0)
  br label %33

33:                                               ; preds = %31, %29
  br label %34

34:                                               ; preds = %33, %24
  br label %37

35:                                               ; preds = %4
  %36 = load ptr, ptr %9, align 8
  call void @HIDAPI_DriverPS5_SetEnhancedReportHint(ptr noundef %36, i32 noundef 1)
  br label %37

37:                                               ; preds = %35, %34
  call void @llvm.lifetime.end.p0(i64 8, ptr %9) #6
  ret void
}