; Function Attrs: nounwind uwtable
define internal void @SDL_PS5EnhancedReportsChanged(ptr noundef captures(none) %0, ptr readnone captures(none) %1, ptr readnone captures(none) %2, ptr noundef %3) #0 {
  %5 = load ptr, ptr %0, align 8
  %6 = getelementptr inbounds nuw i8, ptr %5, i64 84
  %7 = load i8, ptr %6, align 4, !range !5, !noundef !6
  %8 = trunc nuw i8 %7 to i1
  br i1 %8, label %9, label %45

9:                                                ; preds = %4
  %.not = icmp eq ptr %3, null
  br i1 %.not, label %40, label %10

10:                                               ; preds = %9
  %11 = tail call i32 @SDL_strcasecmp_REAL(ptr noundef nonnull %3, ptr noundef nonnull @.str.8) #9
  %12 = icmp eq i32 %11, 0
  br i1 %12, label %13, label %40

13:                                               ; preds = %10
  %14 = getelementptr inbounds nuw i8, ptr %0, i64 30
  %15 = load i8, ptr %14, align 2, !range !5, !noundef !6
  %16 = trunc nuw i8 %15 to i1
  br i1 %16, label %HIDAPI_DriverPS5_SetEnhancedReportHint.exit, label %17

17:                                               ; preds = %13
  store i8 1, ptr %14, align 2
  %18 = getelementptr inbounds nuw i8, ptr %0, i64 22
  %19 = load i8, ptr %18, align 2, !range !5, !noundef !6
  %20 = trunc nuw i8 %19 to i1
  br i1 %20, label %21, label %25

21:                                               ; preds = %17
  %22 = getelementptr inbounds nuw i8, ptr %0, i64 8
  %23 = load ptr, ptr %22, align 8
  tail call void @SDL_PrivateJoystickAddTouchpad(ptr noundef %23, i32 noundef 2) #9
  %24 = getelementptr inbounds nuw i8, ptr %0, i64 32
  store i8 1, ptr %24, align 8
  br label %25

25:                                               ; preds = %21, %17
  %26 = getelementptr inbounds nuw i8, ptr %0, i64 18
  %27 = load i8, ptr %26, align 2, !range !5, !noundef !6
  %28 = trunc nuw i8 %27 to i1
  br i1 %28, label %.sink.split.i.i, label %36

.sink.split.i.i:                                  ; preds = %25
  %29 = load ptr, ptr %0, align 8
  %30 = getelementptr inbounds nuw i8, ptr %29, i64 84
  %31 = load i8, ptr %30, align 4, !range !5, !noundef !6
  %32 = trunc nuw i8 %31 to i1
  %33 = getelementptr inbounds nuw i8, ptr %0, i64 8
  %34 = load ptr, ptr %33, align 8
  %..i.i = select i1 %32, float 1.000000e+03, float 2.500000e+02
  tail call void @SDL_PrivateJoystickAddSensor(ptr noundef %34, i32 noundef 2, float noundef %..i.i) #9
  %35 = load ptr, ptr %33, align 8
  tail call void @SDL_PrivateJoystickAddSensor(ptr noundef %35, i32 noundef 1, float noundef %..i.i) #9
  br label %36

36:                                               ; preds = %.sink.split.i.i, %25
  %37 = getelementptr inbounds nuw i8, ptr %0, i64 33
  store i8 1, ptr %37, align 1
  %38 = load ptr, ptr %0, align 8
  tail call void @HIDAPI_UpdateDeviceProperties(ptr noundef %38) #9
  br label %HIDAPI_DriverPS5_SetEnhancedReportHint.exit

HIDAPI_DriverPS5_SetEnhancedReportHint.exit:      ; preds = %13, %36
  %39 = getelementptr inbounds nuw i8, ptr %0, i64 24
  store i32 2, ptr %39, align 8
  br label %46

40:                                               ; preds = %10, %9
  %41 = tail call zeroext i1 @SDL_GetStringBoolean(ptr noundef %3, i1 noundef zeroext true) #9
  br i1 %41, label %42, label %43

42:                                               ; preds = %40
  tail call fastcc void @HIDAPI_DriverPS5_SetEnhancedReportHint(ptr noundef nonnull %0, i32 noundef 1)
  br label %46

43:                                               ; preds = %40
  %44 = getelementptr inbounds nuw i8, ptr %0, i64 24
  store i32 0, ptr %44, align 8
  br label %46

45:                                               ; preds = %4
  tail call fastcc void @HIDAPI_DriverPS5_SetEnhancedReportHint(ptr noundef nonnull %0, i32 noundef 1)
  br label %46

46:                                               ; preds = %HIDAPI_DriverPS5_SetEnhancedReportHint.exit, %43, %42, %45
  ret void
}